target datalayout = "e-m:e-p270:32:32-p271:32:32-p272:64:64-i64:64-i128:128-f80:128-n8:16:32:64-S128"
target triple = "x86_64-pc-linux-gnu"

%"class.onnx::TensorShapeProtoDefaultTypeInternal" = type { %"class.google::protobuf::internal::ExplicitlyConstructed.9" }
%"class.google::protobuf::internal::ExplicitlyConstructed.9" = type { %"union.google::protobuf::internal::ExplicitlyConstructed<onnx::TensorShapeProto>::AlignedUnion" }
%"union.google::protobuf::internal::ExplicitlyConstructed<onnx::TensorShapeProto>::AlignedUnion" = type { i64, [40 x i8] }
%"class.google::protobuf::Message" = type { %"class.google::protobuf::MessageLite" }
%"class.google::protobuf::MessageLite" = type { ptr, %"class.google::protobuf::internal::InternalMetadata" }
%"class.google::protobuf::internal::InternalMetadata" = type { ptr }
%"class.google::protobuf::internal::CachedSize" = type { %"struct.std::atomic" }
%"struct.std::atomic" = type { %"struct.std::__atomic_base" }
%"struct.std::__atomic_base" = type { i32 }
%"class.google::protobuf::internal::RepeatedPtrFieldBase" = type { ptr, i32, i32, ptr }
%"struct.google::protobuf::internal::SCCInfoBase" = type { %"struct.std::atomic", i32, i32, ptr }
%"class.onnx::TensorShapeProto" = type <{ %"class.google::protobuf::Message", %"class.google::protobuf::RepeatedPtrField.38", %"class.google::protobuf::internal::CachedSize", [4 x i8] }>
%"class.google::protobuf::RepeatedPtrField.38" = type { %"class.google::protobuf::internal::RepeatedPtrFieldBase" }

@_ZN4onnx35_TensorShapeProto_default_instance_E = dso_local global %"class.onnx::TensorShapeProtoDefaultTypeInternal" zeroinitializer, align 8
@.str.10 = private unnamed_addr constant [116 x i8] c"generated/home/dtcxzyw/WorkSpace/Projects/compilers/llvm-opt-benchmark/bench/ncnn/bench_build/tools/onnx/onnx.pb.cc\00", align 1
@_ZTVN6google8protobuf7MessageE = external unnamed_addr constant { [22 x ptr] }, align 8
@_ZTVN6google8protobuf11MessageLiteE = external unnamed_addr constant { [16 x ptr] }, align 8

; Function Attrs: noinline noreturn nounwind uwtable
define linkonce_odr hidden void @__clang_call_terminate(ptr noundef %0) #12 comdat {
  %2 = call ptr @__cxa_begin_catch(ptr %0) #3
  call void @_ZSt9terminatev() #20
  unreachable
}

; Function Attrs: mustprogress nounwind uwtable
define linkonce_odr dso_local noundef i32 @_ZStanSt12memory_orderSt23__memory_order_modifier(i32 noundef %0, i32 noundef %1) #5 comdat {
  %3 = alloca i32, align 4
  %4 = alloca i32, align 4
  store i32 %0, ptr %3, align 4, !tbaa !345
  store i32 %1, ptr %4, align 4, !tbaa !500
  %5 = load i32, ptr %3, align 4, !tbaa !345
  %6 = load i32, ptr %4, align 4, !tbaa !500
  %7 = and i32 %5, %6
  ret i32 %7
}

; Function Attrs: alwaysinline mustprogress nounwind uwtable
define linkonce_odr dso_local noundef i32 @_ZNKSt13__atomic_baseIiE4loadESt12memory_order(ptr noundef nonnull align 4 dereferenceable(4) %0, i32 noundef %1) #14 comdat align 2 personality ptr @__gxx_personality_v0 {
  %3 = alloca ptr, align 8
  %4 = alloca i32, align 4
  %5 = alloca i32, align 4
  %6 = alloca i32, align 4
  store ptr %0, ptr %3, align 8, !tbaa !343
  store i32 %1, ptr %4, align 4, !tbaa !345
  %7 = load ptr, ptr %3, align 8
  call void @llvm.lifetime.start.p0(i64 4, ptr %5) #3
  %8 = load i32, ptr %4, align 4, !tbaa !345
  %9 = invoke noundef i32 @_ZStanSt12memory_orderSt23__memory_order_modifier(i32 noundef %8, i32 noundef 65535)
          to label %10 unwind label %27

10:                                               ; preds = %2
  store i32 %9, ptr %5, align 4, !tbaa !345
  br label %11

11:                                               ; preds = %10
  br label %12

12:                                               ; preds = %11
  br label %13

13:                                               ; preds = %12
  br label %14

14:                                               ; preds = %13
  br label %15

15:                                               ; preds = %14
  br label %16

16:                                               ; preds = %15
  %17 = getelementptr inbounds nuw %"struct.std::__atomic_base", ptr %7, i32 0, i32 0
  %18 = load i32, ptr %4, align 4, !tbaa !345
  switch i32 %18, label %19 [
    i32 1, label %21
    i32 2, label %21
    i32 5, label %23
  ]

19:                                               ; preds = %16
  %20 = load atomic i32, ptr %17 monotonic, align 4
  store i32 %20, ptr %6, align 4
  br label %25

21:                                               ; preds = %16, %16
  %22 = load atomic i32, ptr %17 acquire, align 4
  store i32 %22, ptr %6, align 4
  br label %25

23:                                               ; preds = %16
  %24 = load atomic i32, ptr %17 seq_cst, align 4
  store i32 %24, ptr %6, align 4
  br label %25

25:                                               ; preds = %23, %21, %19
  %26 = load i32, ptr %6, align 4, !tbaa !12
  call void @llvm.lifetime.end.p0(i64 4, ptr %5) #3
  ret i32 %26

27:                                               ; preds = %2
  %28 = landingpad { ptr, i32 }
          catch ptr null
  %29 = extractvalue { ptr, i32 } %28, 0
  call void @__clang_call_terminate(ptr %29) #20
  unreachable
}

; Function Attrs: mustprogress nounwind uwtable
define linkonce_odr dso_local void @_ZNSt13__atomic_baseIiEC2Ei(ptr noundef nonnull align 4 dereferenceable(4) %0, i32 noundef %1) unnamed_addr #5 comdat align 2 {
  %3 = alloca ptr, align 8
  %4 = alloca i32, align 4
  store ptr %0, ptr %3, align 8, !tbaa !343
  store i32 %1, ptr %4, align 4, !tbaa !12
  %5 = load ptr, ptr %3, align 8
  %6 = getelementptr inbounds nuw %"struct.std::__atomic_base", ptr %5, i32 0, i32 0
  %7 = load i32, ptr %4, align 4, !tbaa !12
  store i32 %7, ptr %6, align 4, !tbaa !416
  ret void
}

; Function Attrs: mustprogress nounwind uwtable
define linkonce_odr dso_local void @_ZN6google8protobuf8internal16InternalMetadataC2EPNS0_5ArenaE(ptr noundef nonnull align 8 dereferenceable(8) %0, ptr noundef %1) unnamed_addr #5 comdat align 2 {
  %3 = alloca ptr, align 8
  %4 = alloca ptr, align 8
  store ptr %0, ptr %3, align 8, !tbaa !71
  store ptr %1, ptr %4, align 8, !tbaa !42
  %5 = load ptr, ptr %3, align 8
  %6 = getelementptr inbounds nuw %"class.google::protobuf::internal::InternalMetadata", ptr %5, i32 0, i32 0
  %7 = load ptr, ptr %4, align 8, !tbaa !42
  store ptr %7, ptr %6, align 8, !tbaa !413
  ret void
}

; Function Attrs: inlinehint mustprogress uwtable
define linkonce_odr dso_local void @_ZN6google8protobuf8internal7InitSCCEPNS1_11SCCInfoBaseE(ptr noundef %0) #7 comdat {
  %2 = alloca ptr, align 8
  %3 = alloca i32, align 4
  store ptr %0, ptr %2, align 8, !tbaa !83
  call void @llvm.lifetime.start.p0(i64 4, ptr %3) #3
  %4 = load ptr, ptr %2, align 8, !tbaa !83
  %5 = getelementptr inbounds nuw %"struct.google::protobuf::internal::SCCInfoBase", ptr %4, i32 0, i32 0
  %6 = call noundef i32 @_ZNKSt13__atomic_baseIiE4loadESt12memory_order(ptr noundef nonnull align 4 dereferenceable(4) %5, i32 noundef 2) #3
  store i32 %6, ptr %3, align 4, !tbaa !12
  %7 = load i32, ptr %3, align 4, !tbaa !12
  %8 = icmp ne i32 %7, 0
  %9 = zext i1 %8 to i64
  %10 = call i64 @llvm.expect.i64(i64 %9, i64 0)
  %11 = icmp ne i64 %10, 0
  br i1 %11, label %12, label %14

12:                                               ; preds = %1
  %13 = load ptr, ptr %2, align 8, !tbaa !83
  call void @_ZN6google8protobuf8internal11InitSCCImplEPNS1_11SCCInfoBaseE(ptr noundef %13)
  br label %14

14:                                               ; preds = %12, %1
  call void @llvm.lifetime.end.p0(i64 4, ptr %3) #3
  ret void
}

; Function Attrs: mustprogress nounwind uwtable
define linkonce_odr dso_local void @_ZNSt6atomicIiEC2Ei(ptr noundef nonnull align 4 dereferenceable(4) %0, i32 noundef %1) unnamed_addr #5 comdat align 2 {
  %3 = alloca ptr, align 8
  %4 = alloca i32, align 4
  store ptr %0, ptr %3, align 8, !tbaa !414
  store i32 %1, ptr %4, align 4, !tbaa !12
  %5 = load ptr, ptr %3, align 8
  %6 = load i32, ptr %4, align 4, !tbaa !12
  call void @_ZNSt13__atomic_baseIiEC2Ei(ptr noundef nonnull align 4 dereferenceable(4) %5, i32 noundef %6) #3
  ret void
}

; Function Attrs: inlinehint mustprogress nounwind uwtable
define linkonce_odr dso_local void @_ZN6google8protobuf8internal20RepeatedPtrFieldBaseC2EPNS0_5ArenaE(ptr noundef nonnull align 8 dereferenceable(24) %0, ptr noundef %1) unnamed_addr #6 comdat align 2 {
  %3 = alloca ptr, align 8
  %4 = alloca ptr, align 8
  store ptr %0, ptr %3, align 8, !tbaa !459
  store ptr %1, ptr %4, align 8, !tbaa !42
  %5 = load ptr, ptr %3, align 8
  %6 = getelementptr inbounds nuw %"class.google::protobuf::internal::RepeatedPtrFieldBase", ptr %5, i32 0, i32 0
  %7 = load ptr, ptr %4, align 8, !tbaa !42
  store ptr %7, ptr %6, align 8, !tbaa !466
  %8 = getelementptr inbounds nuw %"class.google::protobuf::internal::RepeatedPtrFieldBase", ptr %5, i32 0, i32 1
  store i32 0, ptr %8, align 8, !tbaa !462
  %9 = getelementptr inbounds nuw %"class.google::protobuf::internal::RepeatedPtrFieldBase", ptr %5, i32 0, i32 2
  store i32 0, ptr %9, align 4, !tbaa !465
  %10 = getelementptr inbounds nuw %"class.google::protobuf::internal::RepeatedPtrFieldBase", ptr %5, i32 0, i32 3
  store ptr null, ptr %10, align 8, !tbaa !461
  ret void
}

; Function Attrs: inlinehint mustprogress uwtable
define linkonce_odr dso_local void @_ZN6google8protobuf11MessageLiteC2EPNS0_5ArenaE(ptr noundef nonnull align 8 dereferenceable(16) %0, ptr noundef %1) unnamed_addr #7 comdat align 2 {
  %3 = alloca ptr, align 8
  %4 = alloca ptr, align 8
  store ptr %0, ptr %3, align 8, !tbaa !67
  store ptr %1, ptr %4, align 8, !tbaa !42
  %5 = load ptr, ptr %3, align 8
  store ptr getelementptr inbounds inrange(-16, 112) ({ [16 x ptr] }, ptr @_ZTVN6google8protobuf11MessageLiteE, i32 0, i32 0, i32 2), ptr %5, align 8, !tbaa !43
  %6 = getelementptr inbounds nuw %"class.google::protobuf::MessageLite", ptr %5, i32 0, i32 1
  %7 = load ptr, ptr %4, align 8, !tbaa !42
  call void @_ZN6google8protobuf8internal16InternalMetadataC2EPNS0_5ArenaE(ptr noundef nonnull align 8 dereferenceable(8) %6, ptr noundef %7)
  ret void
}

; Function Attrs: mustprogress nounwind uwtable
define linkonce_odr dso_local void @_ZN6google8protobuf11MessageLiteD2Ev(ptr noundef nonnull align 8 dereferenceable(16) %0) unnamed_addr #5 comdat align 2 {
  %2 = alloca ptr, align 8
  store ptr %0, ptr %2, align 8, !tbaa !67
  ret void
}

; Function Attrs: inlinehint mustprogress nounwind uwtable
define linkonce_odr dso_local void @_ZN4onnx16TensorShapeProto17RegisterArenaDtorEPN6google8protobuf5ArenaE(ptr noundef nonnull align 8 dereferenceable(48) %0, ptr noundef %1) #6 comdat align 2 {
  %3 = alloca ptr, align 8
  %4 = alloca ptr, align 8
  store ptr %0, ptr %3, align 8, !tbaa !370
  store ptr %1, ptr %4, align 8, !tbaa !42
  ret void
}

; Function Attrs: inlinehint mustprogress uwtable
define linkonce_odr dso_local void @_ZN4onnx16TensorShapeProto10SharedCtorEv(ptr noundef nonnull align 8 dereferenceable(48) %0) #7 comdat align 2 {
  %2 = alloca ptr, align 8
  store ptr %0, ptr %2, align 8, !tbaa !370
  call void @_ZN6google8protobuf8internal7InitSCCEPNS1_11SCCInfoBaseE(ptr noundef @scc_info_TensorShapeProto_onnx_2eproto)
  ret void
}

; Function Attrs: inlinehint mustprogress nounwind uwtable
define linkonce_odr dso_local void @_ZN6google8protobuf8internal10CachedSizeC2Ev(ptr noundef nonnull align 4 dereferenceable(4) %0) unnamed_addr #6 comdat align 2 {
  %2 = alloca ptr, align 8
  store ptr %0, ptr %2, align 8, !tbaa !49
  %3 = load ptr, ptr %2, align 8
  %4 = getelementptr inbounds nuw %"class.google::protobuf::internal::CachedSize", ptr %3, i32 0, i32 0
  call void @_ZNSt6atomicIiEC2Ei(ptr noundef nonnull align 4 dereferenceable(4) %4, i32 noundef 0) #3
  ret void
}

; Function Attrs: inlinehint mustprogress nounwind uwtable
define linkonce_odr dso_local void @_ZN6google8protobuf16RepeatedPtrFieldIN4onnx26TensorShapeProto_DimensionEEC2EPNS0_5ArenaE(ptr noundef nonnull align 8 dereferenceable(24) %0, ptr noundef %1) unnamed_addr #6 comdat align 2 {
  %3 = alloca ptr, align 8
  %4 = alloca ptr, align 8
  store ptr %0, ptr %3, align 8, !tbaa !372
  store ptr %1, ptr %4, align 8, !tbaa !42
  %5 = load ptr, ptr %3, align 8
  %6 = load ptr, ptr %4, align 8, !tbaa !42
  call void @_ZN6google8protobuf8internal20RepeatedPtrFieldBaseC2EPNS0_5ArenaE(ptr noundef nonnull align 8 dereferenceable(24) %5, ptr noundef %6)
  ret void
}

; Function Attrs: inlinehint mustprogress uwtable
define linkonce_odr dso_local void @_ZN6google8protobuf7MessageC2EPNS0_5ArenaE(ptr noundef nonnull align 8 dereferenceable(16) %0, ptr noundef %1) unnamed_addr #7 comdat align 2 {
  %3 = alloca ptr, align 8
  %4 = alloca ptr, align 8
  store ptr %0, ptr %3, align 8, !tbaa !45
  store ptr %1, ptr %4, align 8, !tbaa !42
  %5 = load ptr, ptr %3, align 8
  %6 = load ptr, ptr %4, align 8, !tbaa !42
  call void @_ZN6google8protobuf11MessageLiteC2EPNS0_5ArenaE(ptr noundef nonnull align 8 dereferenceable(16) %5, ptr noundef %6)
  store ptr getelementptr inbounds inrange(-16, 160) ({ [22 x ptr] }, ptr @_ZTVN6google8protobuf7MessageE, i32 0, i32 0, i32 2), ptr %5, align 8, !tbaa !43
  ret void
}

; Function Attrs: mustprogress uwtable
define dso_local void @_ZN4onnx16TensorShapeProtoC2EPN6google8protobuf5ArenaE(ptr noundef nonnull align 8 dereferenceable(48) %0, ptr noundef %1) unnamed_addr #4 align 2 personality ptr @__gxx_personality_v0 {
  %3 = alloca ptr, align 8
  %4 = alloca ptr, align 8
  %5 = alloca ptr, align 8
  %6 = alloca i32, align 4
  store ptr %0, ptr %3, align 8, !tbaa !370
  store ptr %1, ptr %4, align 8, !tbaa !42
  %7 = load ptr, ptr %3, align 8
  %8 = load ptr, ptr %4, align 8, !tbaa !42
  call void @_ZN6google8protobuf7MessageC2EPNS0_5ArenaE(ptr noundef nonnull align 8 dereferenceable(16) %7, ptr noundef %8)
  store ptr getelementptr inbounds inrange(-16, 160) ({ [22 x ptr] }, ptr @_ZTVN4onnx16TensorShapeProtoE, i32 0, i32 0, i32 2), ptr %7, align 8, !tbaa !43
  %9 = getelementptr inbounds nuw %"class.onnx::TensorShapeProto", ptr %7, i32 0, i32 1
  %10 = load ptr, ptr %4, align 8, !tbaa !42
  invoke void @_ZN6google8protobuf16RepeatedPtrFieldIN4onnx26TensorShapeProto_DimensionEEC2EPNS0_5ArenaE(ptr noundef nonnull align 8 dereferenceable(24) %9, ptr noundef %10)
          to label %11 unwind label %16

11:                                               ; preds = %2
  %12 = getelementptr inbounds nuw %"class.onnx::TensorShapeProto", ptr %7, i32 0, i32 2
  call void @_ZN6google8protobuf8internal10CachedSizeC2Ev(ptr noundef nonnull align 4 dereferenceable(4) %12) #3
  invoke void @_ZN4onnx16TensorShapeProto10SharedCtorEv(ptr noundef nonnull align 8 dereferenceable(48) %7)
          to label %13 unwind label %20

13:                                               ; preds = %11
  %14 = load ptr, ptr %4, align 8, !tbaa !42
  invoke void @_ZN4onnx16TensorShapeProto17RegisterArenaDtorEPN6google8protobuf5ArenaE(ptr noundef nonnull align 8 dereferenceable(48) %7, ptr noundef %14)
          to label %15 unwind label %20

15:                                               ; preds = %13
  ret void

16:                                               ; preds = %2
  %17 = landingpad { ptr, i32 }
          cleanup
  %18 = extractvalue { ptr, i32 } %17, 0
  store ptr %18, ptr %5, align 8
  %19 = extractvalue { ptr, i32 } %17, 1
  store i32 %19, ptr %6, align 4
  br label %24

20:                                               ; preds = %13, %11
  %21 = landingpad { ptr, i32 }
          cleanup
  %22 = extractvalue { ptr, i32 } %21, 0
  store ptr %22, ptr %5, align 8
  %23 = extractvalue { ptr, i32 } %21, 1
  store i32 %23, ptr %6, align 4
  call void @_ZN6google8protobuf16RepeatedPtrFieldIN4onnx26TensorShapeProto_DimensionEED2Ev(ptr noundef nonnull align 8 dereferenceable(24) %9) #3
  br label %24

24:                                               ; preds = %20, %16
  call void @_ZN6google8protobuf11MessageLiteD2Ev(ptr noundef nonnull align 8 dereferenceable(16) %7) #3
  br label %25

25:                                               ; preds = %24
  %26 = load ptr, ptr %5, align 8
  %27 = load i32, ptr %6, align 4
  %28 = insertvalue { ptr, i32 } poison, ptr %26, 0
  %29 = insertvalue { ptr, i32 } %28, i32 %27, 1
  resume { ptr, i32 } %29
}

; Function Attrs: mustprogress nounwind uwtable
define dso_local void @_ZN4onnx16TensorShapeProto21InitAsDefaultInstanceEv() #5 align 2 {
  ret void
}

; Function Attrs: inlinehint mustprogress uwtable
define linkonce_odr dso_local void @_ZN6google8protobuf8internal24OnShutdownDestroyMessageEPKv(ptr noundef %0) #7 comdat {
  %2 = alloca ptr, align 8
  store ptr %0, ptr %2, align 8, !tbaa !4
  %3 = load ptr, ptr %2, align 8, !tbaa !4
  call void @_ZN6google8protobuf8internal13OnShutdownRunEPFvPKvES3_(ptr noundef @_ZN6google8protobuf8internal14DestroyMessageEPKv, ptr noundef %3)
  ret void
}

; Function Attrs: inlinehint mustprogress uwtable
define linkonce_odr dso_local void @_ZN4onnx16TensorShapeProtoC2Ev(ptr noundef nonnull align 8 dereferenceable(48) %0) unnamed_addr #7 comdat align 2 {
  %2 = alloca ptr, align 8
  store ptr %0, ptr %2, align 8, !tbaa !370
  %3 = load ptr, ptr %2, align 8
  call void @_ZN4onnx16TensorShapeProtoC2EPN6google8protobuf5ArenaE(ptr noundef nonnull align 8 dereferenceable(48) %3, ptr noundef null)
  ret void
}

; Function Attrs: mustprogress uwtable
define internal void @_ZL50InitDefaultsscc_info_TensorShapeProto_onnx_2eprotov() #4 {
  %1 = alloca ptr, align 8
  call void @_ZN6google8protobuf8internal13VerifyVersionEiiPKc(i32 noundef 3012004, i32 noundef 3012000, ptr noundef @.str.10)
  call void @llvm.lifetime.start.p0(i64 8, ptr %1) #3
  store ptr @_ZN4onnx35_TensorShapeProto_default_instance_E, ptr %1, align 8, !tbaa !4
  %2 = load ptr, ptr %1, align 8, !tbaa !4
  call void @_ZN4onnx16TensorShapeProtoC2Ev(ptr noundef nonnull align 8 dereferenceable(48) %2)
  %3 = load ptr, ptr %1, align 8, !tbaa !4
  call void @_ZN6google8protobuf8internal24OnShutdownDestroyMessageEPKv(ptr noundef %3)
  call void @llvm.lifetime.end.p0(i64 8, ptr %1) #3
  call void @_ZN4onnx16TensorShapeProto21InitAsDefaultInstanceEv()
  ret void
}